target datalayout = "e-m:e-p270:32:32-p271:32:32-p272:64:64-i64:64-i128:128-f80:128-n8:16:32:64-S128"
target triple = "x86_64-pc-linux-gnu"

%struct.ObjectAddress = type { i32, i32, i32 }

; Function Attrs: nounwind uwtable
define dso_local void @ReleaseDeletionLock(ptr noundef %0) #0 {
  %2 = alloca ptr, align 8
  store ptr %0, ptr %2, align 8
  %3 = load ptr, ptr %2, align 8
  %4 = getelementptr inbounds nuw %struct.ObjectAddress, ptr %3, i32 0, i32 0
  %5 = load i32, ptr %4, align 4
  %6 = icmp eq i32 %5, 1259
  br i1 %6, label %7, label %11

7:                                                ; preds = %1
  %8 = load ptr, ptr %2, align 8
  %9 = getelementptr inbounds nuw %struct.ObjectAddress, ptr %8, i32 0, i32 1
  %10 = load i32, ptr %9, align 4
  call void @UnlockRelationOid(i32 noundef %10, i32 noundef 8)
  br label %18

11:                                               ; preds = %1
  %12 = load ptr, ptr %2, align 8
  %13 = getelementptr inbounds nuw %struct.ObjectAddress, ptr %12, i32 0, i32 0
  %14 = load i32, ptr %13, align 4
  %15 = load ptr, ptr %2, align 8
  %16 = getelementptr inbounds nuw %struct.ObjectAddress, ptr %15, i32 0, i32 1
  %17 = load i32, ptr %16, align 4
  call void @UnlockDatabaseObject(i32 noundef %14, i32 noundef %17, i16 noundef zeroext 0, i32 noundef 8)
  br label %18

18:                                               ; preds = %11, %7
  ret void
}