; Function Attrs: nounwind uwtable
define dso_local void @ReleaseDeletionLock(ptr noundef readonly captures(none) %0) local_unnamed_addr #0 {
  %2 = load i32, ptr %0, align 4
  %3 = icmp eq i32 %2, 1259
  %4 = getelementptr inbounds nuw i8, ptr %0, i64 4
  %5 = load i32, ptr %4, align 4
  br i1 %3, label %6, label %7

6:                                                ; preds = %1
  tail call void @UnlockRelationOid(i32 noundef %5, i32 noundef 8) #9
  br label %8

7:                                                ; preds = %1
  tail call void @UnlockDatabaseObject(i32 noundef %2, i32 noundef %5, i16 noundef zeroext 0, i32 noundef 8) #9
  br label %8

8:                                                ; preds = %7, %6
  ret void
}